target datalayout = "e-m:e-p270:32:32-p271:32:32-p272:64:64-i64:64-i128:128-f80:128-n8:16:32:64-S128"
target triple = "x86_64-pc-linux-gnu"

%struct.dlist_node = type { ptr, ptr }
%struct.ResourceOwnerDesc = type { ptr, i32, i32, ptr, ptr }
%struct.CachedPlanSource = type { i32, ptr, ptr, i32, ptr, i32, ptr, ptr, i32, i8, ptr, ptr, ptr, ptr, ptr, ptr, ptr, i32, i8, i8, ptr, i8, i8, i8, i8, i32, %struct.dlist_node, double, double, i64, i64 }
%struct.CachedPlan = type { i32, ptr, i8, i8, i8, i32, i8, i32, i32, i32, ptr }

@planref_resowner_desc = internal constant %struct.ResourceOwnerDesc { ptr @.str.11, i32 3, i32 300, ptr @ResOwnerReleaseCachedPlan, ptr null }, align 8

; Function Attrs: inlinehint nounwind uwtable
define internal i64 @PointerGetDatum(ptr noundef %0) #3 {
  %2 = alloca ptr, align 8
  store ptr %0, ptr %2, align 8
  %3 = load ptr, ptr %2, align 8
  %4 = ptrtoint ptr %3 to i64
  ret i64 %4
}

; Function Attrs: inlinehint nounwind uwtable
define internal void @ResourceOwnerRememberPlanCacheRef(ptr noundef %0, ptr noundef %1) #3 {
  %3 = alloca ptr, align 8
  %4 = alloca ptr, align 8
  store ptr %0, ptr %3, align 8
  store ptr %1, ptr %4, align 8
  %5 = load ptr, ptr %3, align 8
  %6 = load ptr, ptr %4, align 8
  %7 = call i64 @PointerGetDatum(ptr noundef %6)
  call void @ResourceOwnerRemember(ptr noundef %5, i64 noundef %7, ptr noundef @planref_resowner_desc)
  ret void
}

; Function Attrs: nounwind uwtable
define dso_local zeroext i1 @CachedPlanIsSimplyValid(ptr noundef %0, ptr noundef %1, ptr noundef %2) #0 {
  %4 = alloca i1, align 1
  %5 = alloca ptr, align 8
  %6 = alloca ptr, align 8
  %7 = alloca ptr, align 8
  store ptr %0, ptr %5, align 8
  store ptr %1, ptr %6, align 8
  store ptr %2, ptr %7, align 8
  %8 = load ptr, ptr %5, align 8
  %9 = getelementptr inbounds nuw %struct.CachedPlanSource, ptr %8, i32 0, i32 24
  %10 = load i8, ptr %9, align 1, !range !4, !noundef !5
  %11 = trunc i8 %10 to i1
  br i1 %11, label %12, label %26

12:                                               ; preds = %3
  %13 = load ptr, ptr %6, align 8
  %14 = icmp eq ptr %13, null
  br i1 %14, label %26, label %15

15:                                               ; preds = %12
  %16 = load ptr, ptr %6, align 8
  %17 = load ptr, ptr %5, align 8
  %18 = getelementptr inbounds nuw %struct.CachedPlanSource, ptr %17, i32 0, i32 20
  %19 = load ptr, ptr %18, align 8
  %20 = icmp ne ptr %16, %19
  br i1 %20, label %26, label %21

21:                                               ; preds = %15
  %22 = load ptr, ptr %6, align 8
  %23 = getelementptr inbounds nuw %struct.CachedPlan, ptr %22, i32 0, i32 4
  %24 = load i8, ptr %23, align 2, !range !4, !noundef !5
  %25 = trunc i8 %24 to i1
  br i1 %25, label %27, label %26

26:                                               ; preds = %21, %15, %12, %3
  store i1 false, ptr %4, align 1
  br label %45

27:                                               ; preds = %21
  %28 = load ptr, ptr %5, align 8
  %29 = getelementptr inbounds nuw %struct.CachedPlanSource, ptr %28, i32 0, i32 15
  %30 = load ptr, ptr %29, align 8
  %31 = call zeroext i1 @SearchPathMatchesCurrentEnvironment(ptr noundef %30)
  br i1 %31, label %33, label %32

32:                                               ; preds = %27
  store i1 false, ptr %4, align 1
  br label %45

33:                                               ; preds = %27
  %34 = load ptr, ptr %7, align 8
  %35 = icmp ne ptr %34, null
  br i1 %35, label %36, label %44

36:                                               ; preds = %33
  %37 = load ptr, ptr %7, align 8
  call void @ResourceOwnerEnlarge(ptr noundef %37)
  %38 = load ptr, ptr %6, align 8
  %39 = getelementptr inbounds nuw %struct.CachedPlan, ptr %38, i32 0, i32 9
  %40 = load i32, ptr %39, align 4
  %41 = add i32 %40, 1
  store i32 %41, ptr %39, align 4
  %42 = load ptr, ptr %7, align 8
  %43 = load ptr, ptr %6, align 8
  call void @ResourceOwnerRememberPlanCacheRef(ptr noundef %42, ptr noundef %43)
  br label %44

44:                                               ; preds = %36, %33
  store i1 true, ptr %4, align 1
  br label %45

45:                                               ; preds = %44, %32, %26
  %46 = load i1, ptr %4, align 1
  ret i1 %46
}