; Function Attrs: nounwind uwtable
define dso_local noundef zeroext i1 @CachedPlanIsSimplyValid(ptr noundef readonly captures(none) %0, ptr noundef %1, ptr noundef %2) local_unnamed_addr #0 {
  %4 = getelementptr inbounds nuw i8, ptr %0, i64 147
  %5 = load i8, ptr %4, align 1, !range !4, !noundef !5
  %6 = trunc nuw i8 %5 to i1
  %7 = icmp ne ptr %1, null
  %or.cond.not = and i1 %7, %6
  br i1 %or.cond.not, label %8, label %25

8:                                                ; preds = %3
  %9 = getelementptr inbounds nuw i8, ptr %0, i64 136
  %10 = load ptr, ptr %9, align 8
  %.not = icmp eq ptr %1, %10
  br i1 %.not, label %11, label %25

11:                                               ; preds = %8
  %12 = getelementptr inbounds nuw i8, ptr %1, i64 18
  %13 = load i8, ptr %12, align 2, !range !4, !noundef !5
  %14 = trunc nuw i8 %13 to i1
  br i1 %14, label %15, label %25

15:                                               ; preds = %11
  %16 = getelementptr inbounds nuw i8, ptr %0, i64 112
  %17 = load ptr, ptr %16, align 8
  %18 = tail call zeroext i1 @SearchPathMatchesCurrentEnvironment(ptr noundef %17) #9
  br i1 %18, label %19, label %25

19:                                               ; preds = %15
  %.not16 = icmp eq ptr %2, null
  br i1 %.not16, label %25, label %20

20:                                               ; preds = %19
  tail call void @ResourceOwnerEnlarge(ptr noundef nonnull %2) #9
  %21 = getelementptr inbounds nuw i8, ptr %1, i64 36
  %22 = load i32, ptr %21, align 4
  %23 = add i32 %22, 1
  store i32 %23, ptr %21, align 4
  %24 = ptrtoint ptr %1 to i64
  tail call void @ResourceOwnerRemember(ptr noundef nonnull %2, i64 noundef %24, ptr noundef nonnull @planref_resowner_desc) #9
  br label %25

25:                                               ; preds = %19, %20, %15, %3, %8, %11
  %.0 = phi i1 [ false, %11 ], [ false, %8 ], [ false, %3 ], [ false, %15 ], [ true, %20 ], [ true, %19 ]
  ret i1 %.0
}